; Function Attrs: mustprogress nofree norecurse nosync nounwind willreturn memory(readwrite, inaccessiblemem: none) uwtable
define void @_ZN3gmx10TextReader22setTrimTrailingCommentEbc(ptr nocapture noundef nonnull readonly align 8 dereferenceable(8) %0, i1 noundef zeroext %1, i8 noundef signext %2) local_unnamed_addr #10 align 2 {
  %4 = zext i1 %1 to i8
  %5 = load ptr, ptr %0, align 8
  %6 = getelementptr inbounds i8, ptr %5, i64 18
  store i8 %4, ptr %6, align 2
  %7 = load ptr, ptr %0, align 8
  %8 = getelementptr inbounds i8, ptr %7, i64 18
  %9 = load i8, ptr %8, align 2
  %10 = trunc i8 %9 to i1
  br i1 %10, label %11, label %13

11:                                               ; preds = %3
  %12 = getelementptr inbounds i8, ptr %7, i64 19
  store i8 %2, ptr %12, align 1
  br label %13

13:                                               ; preds = %11, %3
  ret void
}